target datalayout = "e-m:e-p270:32:32-p271:32:32-p272:64:64-i64:64-i128:128-f80:128-n8:16:32:64-S128"
target triple = "x86_64-pc-linux-gnu"

; Function Attrs: nounwind uwtable
define internal i32 @php_htoi(ptr noundef %0) #0 {
  %2 = alloca ptr, align 8
  %3 = alloca i32, align 4
  %4 = alloca i32, align 4
  store ptr %0, ptr %2, align 8
  %5 = load ptr, ptr %2, align 8
  %6 = getelementptr inbounds i8, ptr %5, i64 0
  %7 = load i8, ptr %6, align 1
  %8 = zext i8 %7 to i32
  store i32 %8, ptr %4, align 4
  %9 = call ptr @__ctype_b_loc() #14
  %10 = load ptr, ptr %9, align 8
  %11 = load i32, ptr %4, align 4
  %12 = sext i32 %11 to i64
  %13 = getelementptr inbounds i16, ptr %10, i64 %12
  %14 = load i16, ptr %13, align 2
  %15 = zext i16 %14 to i32
  %16 = and i32 %15, 256
  %17 = icmp ne i32 %16, 0
  br i1 %17, label %18, label %21

18:                                               ; preds = %1
  %19 = load i32, ptr %4, align 4
  %20 = call i32 @tolower(i32 noundef %19) #15
  store i32 %20, ptr %4, align 4
  br label %21

21:                                               ; preds = %18, %1
  %22 = load i32, ptr %4, align 4
  %23 = icmp sge i32 %22, 48
  br i1 %23, label %24, label %30

24:                                               ; preds = %21
  %25 = load i32, ptr %4, align 4
  %26 = icmp sle i32 %25, 57
  br i1 %26, label %27, label %30

27:                                               ; preds = %24
  %28 = load i32, ptr %4, align 4
  %29 = sub nsw i32 %28, 48
  br label %34

30:                                               ; preds = %24, %21
  %31 = load i32, ptr %4, align 4
  %32 = sub nsw i32 %31, 97
  %33 = add nsw i32 %32, 10
  br label %34

34:                                               ; preds = %30, %27
  %35 = phi i32 [ %29, %27 ], [ %33, %30 ]
  %36 = mul nsw i32 %35, 16
  store i32 %36, ptr %3, align 4
  %37 = load ptr, ptr %2, align 8
  %38 = getelementptr inbounds i8, ptr %37, i64 1
  %39 = load i8, ptr %38, align 1
  %40 = zext i8 %39 to i32
  store i32 %40, ptr %4, align 4
  %41 = call ptr @__ctype_b_loc() #14
  %42 = load ptr, ptr %41, align 8
  %43 = load i32, ptr %4, align 4
  %44 = sext i32 %43 to i64
  %45 = getelementptr inbounds i16, ptr %42, i64 %44
  %46 = load i16, ptr %45, align 2
  %47 = zext i16 %46 to i32
  %48 = and i32 %47, 256
  %49 = icmp ne i32 %48, 0
  br i1 %49, label %50, label %53

50:                                               ; preds = %34
  %51 = load i32, ptr %4, align 4
  %52 = call i32 @tolower(i32 noundef %51) #15
  store i32 %52, ptr %4, align 4
  br label %53

53:                                               ; preds = %50, %34
  %54 = load i32, ptr %4, align 4
  %55 = icmp sge i32 %54, 48
  br i1 %55, label %56, label %62

56:                                               ; preds = %53
  %57 = load i32, ptr %4, align 4
  %58 = icmp sle i32 %57, 57
  br i1 %58, label %59, label %62

59:                                               ; preds = %56
  %60 = load i32, ptr %4, align 4
  %61 = sub nsw i32 %60, 48
  br label %66

62:                                               ; preds = %56, %53
  %63 = load i32, ptr %4, align 4
  %64 = sub nsw i32 %63, 97
  %65 = add nsw i32 %64, 10
  br label %66

66:                                               ; preds = %62, %59
  %67 = phi i32 [ %61, %59 ], [ %65, %62 ]
  %68 = load i32, ptr %3, align 4
  %69 = add nsw i32 %68, %67
  store i32 %69, ptr %3, align 4
  %70 = load i32, ptr %3, align 4
  ret i32 %70
}

; Function Attrs: nounwind uwtable
define i64 @php_raw_url_decode(ptr noundef %0, i64 noundef %1) #0 {
  %3 = alloca ptr, align 8
  %4 = alloca i64, align 8
  %5 = alloca ptr, align 8
  %6 = alloca ptr, align 8
  store ptr %0, ptr %3, align 8
  store i64 %1, ptr %4, align 8
  %7 = load ptr, ptr %3, align 8
  store ptr %7, ptr %5, align 8
  %8 = load ptr, ptr %3, align 8
  store ptr %8, ptr %6, align 8
  br label %9

9:                                                ; preds = %61, %2
  %10 = load i64, ptr %4, align 8
  %11 = add i64 %10, -1
  store i64 %11, ptr %4, align 8
  %12 = icmp ne i64 %10, 0
  br i1 %12, label %13, label %66

13:                                               ; preds = %9
  %14 = load ptr, ptr %6, align 8
  %15 = load i8, ptr %14, align 1
  %16 = sext i8 %15 to i32
  %17 = icmp eq i32 %16, 37
  br i1 %17, label %18, label %57

18:                                               ; preds = %13
  %19 = load i64, ptr %4, align 8
  %20 = icmp uge i64 %19, 2
  br i1 %20, label %21, label %57

21:                                               ; preds = %18
  %22 = call ptr @__ctype_b_loc() #14
  %23 = load ptr, ptr %22, align 8
  %24 = load ptr, ptr %6, align 8
  %25 = getelementptr inbounds i8, ptr %24, i64 1
  %26 = load i8, ptr %25, align 1
  %27 = sext i8 %26 to i32
  %28 = sext i32 %27 to i64
  %29 = getelementptr inbounds i16, ptr %23, i64 %28
  %30 = load i16, ptr %29, align 2
  %31 = zext i16 %30 to i32
  %32 = and i32 %31, 4096
  %33 = icmp ne i32 %32, 0
  br i1 %33, label %34, label %57

34:                                               ; preds = %21
  %35 = call ptr @__ctype_b_loc() #14
  %36 = load ptr, ptr %35, align 8
  %37 = load ptr, ptr %6, align 8
  %38 = getelementptr inbounds i8, ptr %37, i64 2
  %39 = load i8, ptr %38, align 1
  %40 = sext i8 %39 to i32
  %41 = sext i32 %40 to i64
  %42 = getelementptr inbounds i16, ptr %36, i64 %41
  %43 = load i16, ptr %42, align 2
  %44 = zext i16 %43 to i32
  %45 = and i32 %44, 4096
  %46 = icmp ne i32 %45, 0
  br i1 %46, label %47, label %57

47:                                               ; preds = %34
  %48 = load ptr, ptr %6, align 8
  %49 = getelementptr inbounds i8, ptr %48, i64 1
  %50 = call i32 @php_htoi(ptr noundef %49)
  %51 = trunc i32 %50 to i8
  %52 = load ptr, ptr %5, align 8
  store i8 %51, ptr %52, align 1
  %53 = load ptr, ptr %6, align 8
  %54 = getelementptr inbounds i8, ptr %53, i64 2
  store ptr %54, ptr %6, align 8
  %55 = load i64, ptr %4, align 8
  %56 = sub i64 %55, 2
  store i64 %56, ptr %4, align 8
  br label %61

57:                                               ; preds = %34, %21, %18, %13
  %58 = load ptr, ptr %6, align 8
  %59 = load i8, ptr %58, align 1
  %60 = load ptr, ptr %5, align 8
  store i8 %59, ptr %60, align 1
  br label %61

61:                                               ; preds = %57, %47
  %62 = load ptr, ptr %6, align 8
  %63 = getelementptr inbounds i8, ptr %62, i32 1
  store ptr %63, ptr %6, align 8
  %64 = load ptr, ptr %5, align 8
  %65 = getelementptr inbounds i8, ptr %64, i32 1
  store ptr %65, ptr %5, align 8
  br label %9

66:                                               ; preds = %9
  %67 = load ptr, ptr %5, align 8
  store i8 0, ptr %67, align 1
  %68 = load ptr, ptr %5, align 8
  %69 = load ptr, ptr %3, align 8
  %70 = ptrtoint ptr %68 to i64
  %71 = ptrtoint ptr %69 to i64
  %72 = sub i64 %70, %71
  ret i64 %72
}