; Function Attrs: nofree nounwind memory(readwrite, inaccessiblemem: read) uwtable
define noundef i64 @php_raw_url_decode(ptr noundef %0, i64 noundef %1) local_unnamed_addr #11 {
  %.not24 = icmp eq i64 %1, 0
  br i1 %.not24, label %._crit_edge, label %.lr.ph

.lr.ph:                                           ; preds = %2, %50
  %.027 = phi ptr [ %51, %50 ], [ %0, %2 ]
  %.01826 = phi ptr [ %52, %50 ], [ %0, %2 ]
  %.01925 = phi i64 [ %.120, %50 ], [ %1, %2 ]
  %3 = add i64 %.01925, -1
  %4 = load i8, ptr %.027, align 1
  %5 = icmp eq i8 %4, 37
  %6 = icmp ugt i64 %3, 1
  %or.cond = and i1 %6, %5
  br i1 %or.cond, label %7, label %49

7:                                                ; preds = %.lr.ph
  %8 = tail call ptr @__ctype_b_loc() #17
  %9 = load ptr, ptr %8, align 8
  %10 = getelementptr inbounds i8, ptr %.027, i64 1
  %11 = load i8, ptr %10, align 1
  %12 = sext i8 %11 to i64
  %13 = getelementptr inbounds i16, ptr %9, i64 %12
  %14 = load i16, ptr %13, align 2
  %15 = and i16 %14, 4096
  %.not22 = icmp eq i16 %15, 0
  br i1 %.not22, label %49, label %16

16:                                               ; preds = %7
  %17 = getelementptr inbounds i8, ptr %.027, i64 2
  %18 = load i8, ptr %17, align 1
  %19 = sext i8 %18 to i64
  %20 = getelementptr inbounds i16, ptr %9, i64 %19
  %21 = load i16, ptr %20, align 2
  %22 = and i16 %21, 4096
  %.not23 = icmp eq i16 %22, 0
  br i1 %.not23, label %49, label %23

23:                                               ; preds = %16
  %24 = zext i8 %11 to i32
  %25 = zext i8 %11 to i64
  %26 = getelementptr inbounds i16, ptr %9, i64 %25
  %27 = load i16, ptr %26, align 2
  %28 = and i16 %27, 256
  %.not.i = icmp eq i16 %28, 0
  br i1 %.not.i, label %31, label %29

29:                                               ; preds = %23
  %30 = tail call i32 @tolower(i32 noundef %24) #18
  br label %31

31:                                               ; preds = %29, %23
  %.0.i = phi i32 [ %30, %29 ], [ %24, %23 ]
  %32 = zext i8 %18 to i32
  %33 = zext i8 %18 to i64
  %34 = getelementptr inbounds i16, ptr %9, i64 %33
  %35 = load i16, ptr %34, align 2
  %36 = and i16 %35, 256
  %.not18.i = icmp eq i16 %36, 0
  br i1 %.not18.i, label %php_htoi.exit, label %37

37:                                               ; preds = %31
  %38 = tail call i32 @tolower(i32 noundef %32) #18
  br label %php_htoi.exit

php_htoi.exit:                                    ; preds = %31, %37
  %.1.i = phi i32 [ %38, %37 ], [ %32, %31 ]
  %39 = add i32 %.0.i, -48
  %or.cond.i = icmp ult i32 %39, 10
  %40 = add nsw i32 %.0.i, -87
  %41 = select i1 %or.cond.i, i32 %39, i32 %40
  %42 = add i32 %.1.i, -48
  %or.cond3.i = icmp ult i32 %42, 10
  %43 = add i32 %.1.i, 169
  %44 = select i1 %or.cond3.i, i32 %42, i32 %43
  %45 = shl nsw i32 %41, 4
  %46 = add i32 %44, %45
  %47 = trunc i32 %46 to i8
  store i8 %47, ptr %.01826, align 1
  %48 = add i64 %.01925, -3
  br label %50

49:                                               ; preds = %16, %7, %.lr.ph
  store i8 %4, ptr %.01826, align 1
  br label %50

50:                                               ; preds = %49, %php_htoi.exit
  %.120 = phi i64 [ %48, %php_htoi.exit ], [ %3, %49 ]
  %.1 = phi ptr [ %17, %php_htoi.exit ], [ %.027, %49 ]
  %51 = getelementptr inbounds i8, ptr %.1, i64 1
  %52 = getelementptr inbounds i8, ptr %.01826, i64 1
  %.not = icmp eq i64 %.120, 0
  br i1 %.not, label %._crit_edge, label %.lr.ph

._crit_edge:                                      ; preds = %50, %2
  %.018.lcssa = phi ptr [ %0, %2 ], [ %52, %50 ]
  store i8 0, ptr %.018.lcssa, align 1
  %53 = ptrtoint ptr %.018.lcssa to i64
  %54 = ptrtoint ptr %0 to i64
  %55 = sub i64 %53, %54
  ret i64 %55
}